; ModuleID = 'source-C-CXX/56/71.c'
source_filename = "source-C-CXX/56/71.c"
target datalayout = "e-m:e-p270:32:32-p271:32:32-p272:64:64-i64:64-f80:128-n8:16:32:64-S128"
target triple = "x86_64-pc-linux-gnu"

@.str = private unnamed_addr constant [4 x i8] c"%d\0A\00", align 1

; Function Attrs: nounwind sspstrong uwtable
define dso_local i32 @main() local_unnamed_addr #0 {
  %1 = alloca i32, align 4
  %2 = alloca [10000 x i8], align 16
  %3 = bitcast i32* %1 to i8*
  call void @llvm.lifetime.start.p0i8(i64 4, i8* nonnull %3) #6
  %4 = call i32 (i8*, ...) @__isoc99_scanf(i8* getelementptr inbounds ([4 x i8], [4 x i8]* @.str, i64 0, i64 0), i32* nonnull %1)
  %5 = getelementptr inbounds [10000 x i8], [10000 x i8]* %2, i64 0, i64 0
  %6 = load i32, i32* %1, align 4, !tbaa !5
  %7 = icmp sgt i32 %6, 0
  br i1 %7, label %8, label %88

8:                                                ; preds = %0, %84
  %9 = phi i32 [ %85, %84 ], [ 0, %0 ]
  call void @llvm.lifetime.start.p0i8(i64 10000, i8* nonnull %5) #6
  %10 = call i32 (i8*, ...) bitcast (i32 (...)* @gets to i32 (i8*, ...)*)(i8* nonnull %5) #6
  %11 = call i64 @strlen(i8* noundef nonnull %5) #7
  %12 = trunc i64 %11 to i32
  %13 = add i32 %12, -2
  %14 = sext i32 %13 to i64
  %15 = getelementptr inbounds [10000 x i8], [10000 x i8]* %2, i64 0, i64 %14
  %16 = load i8, i8* %15, align 1, !tbaa !9
  switch i8 %16, label %55 [
    i8 108, label %17
    i8 101, label %36
  ]

17:                                               ; preds = %8
  %18 = shl i64 %11, 32
  %19 = add i64 %18, -4294967296
  %20 = ashr exact i64 %19, 32
  %21 = getelementptr inbounds [10000 x i8], [10000 x i8]* %2, i64 0, i64 %20
  %22 = load i8, i8* %21, align 1, !tbaa !9
  %23 = icmp eq i8 %22, 121
  br i1 %23, label %24, label %55

24:                                               ; preds = %17
  %25 = icmp sgt i32 %12, 2
  br i1 %25, label %26, label %82

26:                                               ; preds = %24
  %27 = zext i32 %13 to i64
  br label %28

28:                                               ; preds = %26, %28
  %29 = phi i64 [ 0, %26 ], [ %34, %28 ]
  %30 = getelementptr inbounds [10000 x i8], [10000 x i8]* %2, i64 0, i64 %29
  %31 = load i8, i8* %30, align 1, !tbaa !9
  %32 = sext i8 %31 to i32
  %33 = call i32 @putchar(i32 %32)
  %34 = add nuw nsw i64 %29, 1
  %35 = icmp eq i64 %34, %27
  br i1 %35, label %82, label %28, !llvm.loop !10

36:                                               ; preds = %8
  %37 = shl i64 %11, 32
  %38 = add i64 %37, -4294967296
  %39 = ashr exact i64 %38, 32
  %40 = getelementptr inbounds [10000 x i8], [10000 x i8]* %2, i64 0, i64 %39
  %41 = load i8, i8* %40, align 1, !tbaa !9
  %42 = icmp eq i8 %41, 114
  br i1 %42, label %43, label %55

43:                                               ; preds = %36
  %44 = icmp sgt i32 %12, 2
  br i1 %44, label %45, label %82

45:                                               ; preds = %43
  %46 = zext i32 %13 to i64
  br label %47

47:                                               ; preds = %45, %47
  %48 = phi i64 [ 0, %45 ], [ %53, %47 ]
  %49 = getelementptr inbounds [10000 x i8], [10000 x i8]* %2, i64 0, i64 %48
  %50 = load i8, i8* %49, align 1, !tbaa !9
  %51 = sext i8 %50 to i32
  %52 = call i32 @putchar(i32 %51)
  %53 = add nuw nsw i64 %48, 1
  %54 = icmp eq i64 %53, %46
  br i1 %54, label %82, label %47, !llvm.loop !12

55:                                               ; preds = %8, %17, %36
  %56 = add i32 %12, -3
  %57 = sext i32 %56 to i64
  %58 = getelementptr inbounds [10000 x i8], [10000 x i8]* %2, i64 0, i64 %57
  %59 = load i8, i8* %58, align 1, !tbaa !9
  %60 = icmp eq i8 %59, 105
  %61 = icmp eq i8 %16, 110
  %62 = select i1 %60, i1 %61, i1 false
  br i1 %62, label %63, label %84

63:                                               ; preds = %55
  %64 = shl i64 %11, 32
  %65 = add i64 %64, -4294967296
  %66 = ashr exact i64 %65, 32
  %67 = getelementptr inbounds [10000 x i8], [10000 x i8]* %2, i64 0, i64 %66
  %68 = load i8, i8* %67, align 1, !tbaa !9
  %69 = icmp eq i8 %68, 103
  br i1 %69, label %70, label %84

70:                                               ; preds = %63
  %71 = icmp sgt i32 %12, 3
  br i1 %71, label %72, label %82

72:                                               ; preds = %70
  %73 = zext i32 %56 to i64
  br label %74

74:                                               ; preds = %72, %74
  %75 = phi i64 [ 0, %72 ], [ %80, %74 ]
  %76 = getelementptr inbounds [10000 x i8], [10000 x i8]* %2, i64 0, i64 %75
  %77 = load i8, i8* %76, align 1, !tbaa !9
  %78 = sext i8 %77 to i32
  %79 = call i32 @putchar(i32 %78)
  %80 = add nuw nsw i64 %75, 1
  %81 = icmp eq i64 %80, %73
  br i1 %81, label %82, label %74, !llvm.loop !13

82:                                               ; preds = %47, %28, %74, %70, %43, %24
  %83 = call i32 @putchar(i32 10)
  br label %84

84:                                               ; preds = %82, %63, %55
  call void @llvm.lifetime.end.p0i8(i64 10000, i8* nonnull %5) #6
  %85 = add nuw nsw i32 %9, 1
  %86 = load i32, i32* %1, align 4, !tbaa !5
  %87 = icmp slt i32 %85, %86
  br i1 %87, label %8, label %88, !llvm.loop !14

88:                                               ; preds = %84, %0
  call void @llvm.lifetime.end.p0i8(i64 4, i8* nonnull %3) #6
  ret i32 0
}

; Function Attrs: argmemonly mustprogress nofree nosync nounwind willreturn
declare void @llvm.lifetime.start.p0i8(i64 immarg, i8* nocapture) #1

; Function Attrs: nofree nounwind
declare noundef i32 @__isoc99_scanf(i8* nocapture noundef readonly, ...) local_unnamed_addr #2

declare i32 @gets(...) local_unnamed_addr #3

; Function Attrs: argmemonly mustprogress nofree nounwind readonly willreturn
declare i64 @strlen(i8* nocapture) local_unnamed_addr #4

; Function Attrs: argmemonly mustprogress nofree nosync nounwind willreturn
declare void @llvm.lifetime.end.p0i8(i64 immarg, i8* nocapture) #1

; Function Attrs: nofree nounwind
declare noundef i32 @putchar(i32 noundef) local_unnamed_addr #5


!llvm.module.flags = !{!0, !1, !2, !3}
!llvm.ident = !{!4}

!0 = !{i32 1, !"wchar_size", i32 4}
!1 = !{i32 7, !"PIC Level", i32 2}
!2 = !{i32 7, !"PIE Level", i32 2}
!3 = !{i32 7, !"uwtable", i32 1}
!4 = !{!"clang version 13.0.0"}
!5 = !{!6, !6, i64 0}
!6 = !{!"int", !7, i64 0}
!7 = !{!"omnipotent char", !8, i64 0}
!8 = !{!"Simple C/C++ TBAA"}
!9 = !{!7, !7, i64 0}
!10 = distinct !{!10, !11}
!11 = !{!"llvm.loop.mustprogress"}
!12 = distinct !{!12, !11}
!13 = distinct !{!13, !11}
!14 = distinct !{!14, !11}
